target datalayout = "e-m:e-p270:32:32-p271:32:32-p272:64:64-i64:64-i128:128-f80:128-n8:16:32:64-S128"
target triple = "x86_64-pc-linux-gnu"

%struct.PatternInfoArray = type { ptr, i64 }
%struct.AmcheckOptions = type { i8, i8, i8, i8, i8, i8, i32, i8, ptr, %struct.PatternInfoArray, %struct.PatternInfoArray, i8, i8, i8, i8, i8, i8, i8, i64, i64, ptr, i8, i8, i8, i8, i8 }
%struct.DatabaseInfo = type { ptr, ptr, i8 }
%struct.RelationInfo = type { ptr, i32, i8, ptr, ptr, i32, i32, ptr }

@all_checks_pass = internal global i8 1, align 1
@.str.86 = private unnamed_addr constant [11 x i8] c"NO MESSAGE\00", align 1
@.str.87 = private unnamed_addr constant [59 x i8] c"heap table \22%s.%s.%s\22, block %s, offset %s, attribute %s:\0A\00", align 1
@.str.88 = private unnamed_addr constant [45 x i8] c"heap table \22%s.%s.%s\22, block %s, offset %s:\0A\00", align 1
@.str.89 = private unnamed_addr constant [34 x i8] c"heap table \22%s.%s.%s\22, block %s:\0A\00", align 1
@.str.90 = private unnamed_addr constant [24 x i8] c"heap table \22%s.%s.%s\22:\0A\00", align 1
@.str.91 = private unnamed_addr constant [8 x i8] c"    %s\0A\00", align 1
@.str.92 = private unnamed_addr constant [3 x i8] c"%s\00", align 1
@.str.93 = private unnamed_addr constant [15 x i8] c"query was: %s\0A\00", align 1
@.str.95 = private unnamed_addr constant [6 x i8] c"FATAL\00", align 1
@.str.96 = private unnamed_addr constant [6 x i8] c"PANIC\00", align 1

; Function Attrs: nounwind uwtable
define internal zeroext i1 @should_processing_continue(ptr noundef %0) #0 {
  %2 = alloca i1, align 1
  %3 = alloca ptr, align 8
  %4 = alloca ptr, align 8
  %5 = alloca i32, align 4
  store ptr %0, ptr %3, align 8
  call void @llvm.lifetime.start.p0(i64 8, ptr %4) #10
  %6 = load ptr, ptr %3, align 8
  %7 = call i32 @PQresultStatus(ptr noundef %6)
  switch i32 %7, label %27 [
    i32 1, label %8
    i32 2, label %8
    i32 6, label %8
    i32 7, label %9
    i32 5, label %26
    i32 0, label %26
    i32 3, label %26
    i32 4, label %26
    i32 8, label %26
    i32 9, label %26
    i32 10, label %26
    i32 11, label %26
    i32 12, label %26
  ]

8:                                                ; preds = %1, %1, %1
  br label %27

9:                                                ; preds = %1
  %10 = load ptr, ptr %3, align 8
  %11 = call ptr @PQresultErrorField(ptr noundef %10, i32 noundef 86)
  store ptr %11, ptr %4, align 8
  %12 = load ptr, ptr %4, align 8
  %13 = icmp eq ptr %12, null
  br i1 %13, label %14, label %15

14:                                               ; preds = %9
  store i1 false, ptr %2, align 1
  store i32 1, ptr %5, align 4
  br label %28

15:                                               ; preds = %9
  %16 = load ptr, ptr %4, align 8
  %17 = call i32 @strcmp(ptr noundef %16, ptr noundef @.str.95) #13
  %18 = icmp eq i32 %17, 0
  br i1 %18, label %19, label %20

19:                                               ; preds = %15
  store i1 false, ptr %2, align 1
  store i32 1, ptr %5, align 4
  br label %28

20:                                               ; preds = %15
  %21 = load ptr, ptr %4, align 8
  %22 = call i32 @strcmp(ptr noundef %21, ptr noundef @.str.96) #13
  %23 = icmp eq i32 %22, 0
  br i1 %23, label %24, label %25

24:                                               ; preds = %20
  store i1 false, ptr %2, align 1
  store i32 1, ptr %5, align 4
  br label %28

25:                                               ; preds = %20
  br label %27

26:                                               ; preds = %1, %1, %1, %1, %1, %1, %1, %1, %1
  store i1 false, ptr %2, align 1
  store i32 1, ptr %5, align 4
  br label %28

27:                                               ; preds = %1, %25, %8
  store i1 true, ptr %2, align 1
  store i32 1, ptr %5, align 4
  br label %28

28:                                               ; preds = %27, %26, %24, %19, %14
  call void @llvm.lifetime.end.p0(i64 8, ptr %4) #10
  %29 = load i1, ptr %2, align 1
  ret i1 %29
}

; Function Attrs: nounwind uwtable
define internal zeroext i1 @verify_heap_slot_handler(ptr noundef %0, ptr noundef %1, ptr noundef %2) #0 {
  %4 = alloca ptr, align 8
  %5 = alloca ptr, align 8
  %6 = alloca ptr, align 8
  %7 = alloca ptr, align 8
  %8 = alloca i32, align 4
  %9 = alloca i32, align 4
  %10 = alloca ptr, align 8
  %11 = alloca ptr, align 8
  store ptr %0, ptr %4, align 8
  store ptr %1, ptr %5, align 8
  store ptr %2, ptr %6, align 8
  call void @llvm.lifetime.start.p0(i64 8, ptr %7) #10
  %12 = load ptr, ptr %6, align 8
  store ptr %12, ptr %7, align 8
  %13 = load ptr, ptr %4, align 8
  %14 = call i32 @PQresultStatus(ptr noundef %13)
  %15 = icmp eq i32 %14, 2
  br i1 %15, label %16, label %131

16:                                               ; preds = %3
  call void @llvm.lifetime.start.p0(i64 4, ptr %8) #10
  call void @llvm.lifetime.start.p0(i64 4, ptr %9) #10
  %17 = load ptr, ptr %4, align 8
  %18 = call i32 @PQntuples(ptr noundef %17)
  store i32 %18, ptr %9, align 4
  %19 = load i32, ptr %9, align 4
  %20 = icmp sgt i32 %19, 0
  br i1 %20, label %21, label %22

21:                                               ; preds = %16
  store i8 0, ptr @all_checks_pass, align 1
  br label %22

22:                                               ; preds = %21, %16
  store i32 0, ptr %8, align 4
  br label %23

23:                                               ; preds = %127, %22
  %24 = load i32, ptr %8, align 4
  %25 = load i32, ptr %9, align 4
  %26 = icmp slt i32 %24, %25
  br i1 %26, label %27, label %130

27:                                               ; preds = %23
  call void @llvm.lifetime.start.p0(i64 8, ptr %10) #10
  %28 = load ptr, ptr %4, align 8
  %29 = load i32, ptr %8, align 4
  %30 = call i32 @PQgetisnull(ptr noundef %28, i32 noundef %29, i32 noundef 3)
  %31 = icmp ne i32 %30, 0
  br i1 %31, label %32, label %33

32:                                               ; preds = %27
  store ptr @.str.86, ptr %10, align 8
  br label %37

33:                                               ; preds = %27
  %34 = load ptr, ptr %4, align 8
  %35 = load i32, ptr %8, align 4
  %36 = call ptr @PQgetvalue(ptr noundef %34, i32 noundef %35, i32 noundef 3)
  store ptr %36, ptr %10, align 8
  br label %37

37:                                               ; preds = %33, %32
  %38 = load ptr, ptr %4, align 8
  %39 = load i32, ptr %8, align 4
  %40 = call i32 @PQgetisnull(ptr noundef %38, i32 noundef %39, i32 noundef 2)
  %41 = icmp ne i32 %40, 0
  br i1 %41, label %64, label %42

42:                                               ; preds = %37
  %43 = load ptr, ptr %7, align 8
  %44 = getelementptr inbounds nuw %struct.RelationInfo, ptr %43, i32 0, i32 0
  %45 = load ptr, ptr %44, align 8
  %46 = getelementptr inbounds nuw %struct.DatabaseInfo, ptr %45, i32 0, i32 0
  %47 = load ptr, ptr %46, align 8
  %48 = load ptr, ptr %7, align 8
  %49 = getelementptr inbounds nuw %struct.RelationInfo, ptr %48, i32 0, i32 3
  %50 = load ptr, ptr %49, align 8
  %51 = load ptr, ptr %7, align 8
  %52 = getelementptr inbounds nuw %struct.RelationInfo, ptr %51, i32 0, i32 4
  %53 = load ptr, ptr %52, align 8
  %54 = load ptr, ptr %4, align 8
  %55 = load i32, ptr %8, align 4
  %56 = call ptr @PQgetvalue(ptr noundef %54, i32 noundef %55, i32 noundef 0)
  %57 = load ptr, ptr %4, align 8
  %58 = load i32, ptr %8, align 4
  %59 = call ptr @PQgetvalue(ptr noundef %57, i32 noundef %58, i32 noundef 1)
  %60 = load ptr, ptr %4, align 8
  %61 = load i32, ptr %8, align 4
  %62 = call ptr @PQgetvalue(ptr noundef %60, i32 noundef %61, i32 noundef 2)
  %63 = call i32 (ptr, ...) @pg_printf(ptr noundef @.str.87, ptr noundef %47, ptr noundef %50, ptr noundef %53, ptr noundef %56, ptr noundef %59, ptr noundef %62)
  br label %124

64:                                               ; preds = %37
  %65 = load ptr, ptr %4, align 8
  %66 = load i32, ptr %8, align 4
  %67 = call i32 @PQgetisnull(ptr noundef %65, i32 noundef %66, i32 noundef 1)
  %68 = icmp ne i32 %67, 0
  br i1 %68, label %88, label %69

69:                                               ; preds = %64
  %70 = load ptr, ptr %7, align 8
  %71 = getelementptr inbounds nuw %struct.RelationInfo, ptr %70, i32 0, i32 0
  %72 = load ptr, ptr %71, align 8
  %73 = getelementptr inbounds nuw %struct.DatabaseInfo, ptr %72, i32 0, i32 0
  %74 = load ptr, ptr %73, align 8
  %75 = load ptr, ptr %7, align 8
  %76 = getelementptr inbounds nuw %struct.RelationInfo, ptr %75, i32 0, i32 3
  %77 = load ptr, ptr %76, align 8
  %78 = load ptr, ptr %7, align 8
  %79 = getelementptr inbounds nuw %struct.RelationInfo, ptr %78, i32 0, i32 4
  %80 = load ptr, ptr %79, align 8
  %81 = load ptr, ptr %4, align 8
  %82 = load i32, ptr %8, align 4
  %83 = call ptr @PQgetvalue(ptr noundef %81, i32 noundef %82, i32 noundef 0)
  %84 = load ptr, ptr %4, align 8
  %85 = load i32, ptr %8, align 4
  %86 = call ptr @PQgetvalue(ptr noundef %84, i32 noundef %85, i32 noundef 1)
  %87 = call i32 (ptr, ...) @pg_printf(ptr noundef @.str.88, ptr noundef %74, ptr noundef %77, ptr noundef %80, ptr noundef %83, ptr noundef %86)
  br label %123

88:                                               ; preds = %64
  %89 = load ptr, ptr %4, align 8
  %90 = load i32, ptr %8, align 4
  %91 = call i32 @PQgetisnull(ptr noundef %89, i32 noundef %90, i32 noundef 0)
  %92 = icmp ne i32 %91, 0
  br i1 %92, label %109, label %93

93:                                               ; preds = %88
  %94 = load ptr, ptr %7, align 8
  %95 = getelementptr inbounds nuw %struct.RelationInfo, ptr %94, i32 0, i32 0
  %96 = load ptr, ptr %95, align 8
  %97 = getelementptr inbounds nuw %struct.DatabaseInfo, ptr %96, i32 0, i32 0
  %98 = load ptr, ptr %97, align 8
  %99 = load ptr, ptr %7, align 8
  %100 = getelementptr inbounds nuw %struct.RelationInfo, ptr %99, i32 0, i32 3
  %101 = load ptr, ptr %100, align 8
  %102 = load ptr, ptr %7, align 8
  %103 = getelementptr inbounds nuw %struct.RelationInfo, ptr %102, i32 0, i32 4
  %104 = load ptr, ptr %103, align 8
  %105 = load ptr, ptr %4, align 8
  %106 = load i32, ptr %8, align 4
  %107 = call ptr @PQgetvalue(ptr noundef %105, i32 noundef %106, i32 noundef 0)
  %108 = call i32 (ptr, ...) @pg_printf(ptr noundef @.str.89, ptr noundef %98, ptr noundef %101, ptr noundef %104, ptr noundef %107)
  br label %122

109:                                              ; preds = %88
  %110 = load ptr, ptr %7, align 8
  %111 = getelementptr inbounds nuw %struct.RelationInfo, ptr %110, i32 0, i32 0
  %112 = load ptr, ptr %111, align 8
  %113 = getelementptr inbounds nuw %struct.DatabaseInfo, ptr %112, i32 0, i32 0
  %114 = load ptr, ptr %113, align 8
  %115 = load ptr, ptr %7, align 8
  %116 = getelementptr inbounds nuw %struct.RelationInfo, ptr %115, i32 0, i32 3
  %117 = load ptr, ptr %116, align 8
  %118 = load ptr, ptr %7, align 8
  %119 = getelementptr inbounds nuw %struct.RelationInfo, ptr %118, i32 0, i32 4
  %120 = load ptr, ptr %119, align 8
  %121 = call i32 (ptr, ...) @pg_printf(ptr noundef @.str.90, ptr noundef %114, ptr noundef %117, ptr noundef %120)
  br label %122

122:                                              ; preds = %109, %93
  br label %123

123:                                              ; preds = %122, %69
  br label %124

124:                                              ; preds = %123, %42
  %125 = load ptr, ptr %10, align 8
  %126 = call i32 (ptr, ...) @pg_printf(ptr noundef @.str.91, ptr noundef %125)
  call void @llvm.lifetime.end.p0(i64 8, ptr %10) #10
  br label %127

127:                                              ; preds = %124
  %128 = load i32, ptr %8, align 4
  %129 = add i32 %128, 1
  store i32 %129, ptr %8, align 4
  br label %23, !llvm.loop !14

130:                                              ; preds = %23
  call void @llvm.lifetime.end.p0(i64 4, ptr %9) #10
  call void @llvm.lifetime.end.p0(i64 4, ptr %8) #10
  br label %166

131:                                              ; preds = %3
  %132 = load ptr, ptr %4, align 8
  %133 = call i32 @PQresultStatus(ptr noundef %132)
  %134 = icmp ne i32 %133, 2
  br i1 %134, label %135, label %165

135:                                              ; preds = %131
  call void @llvm.lifetime.start.p0(i64 8, ptr %11) #10
  %136 = load ptr, ptr %5, align 8
  %137 = call ptr @PQerrorMessage(ptr noundef %136)
  %138 = call ptr @indent_lines(ptr noundef %137)
  store ptr %138, ptr %11, align 8
  store i8 0, ptr @all_checks_pass, align 1
  %139 = load ptr, ptr %7, align 8
  %140 = getelementptr inbounds nuw %struct.RelationInfo, ptr %139, i32 0, i32 0
  %141 = load ptr, ptr %140, align 8
  %142 = getelementptr inbounds nuw %struct.DatabaseInfo, ptr %141, i32 0, i32 0
  %143 = load ptr, ptr %142, align 8
  %144 = load ptr, ptr %7, align 8
  %145 = getelementptr inbounds nuw %struct.RelationInfo, ptr %144, i32 0, i32 3
  %146 = load ptr, ptr %145, align 8
  %147 = load ptr, ptr %7, align 8
  %148 = getelementptr inbounds nuw %struct.RelationInfo, ptr %147, i32 0, i32 4
  %149 = load ptr, ptr %148, align 8
  %150 = call i32 (ptr, ...) @pg_printf(ptr noundef @.str.90, ptr noundef %143, ptr noundef %146, ptr noundef %149)
  %151 = load ptr, ptr %11, align 8
  %152 = call i32 (ptr, ...) @pg_printf(ptr noundef @.str.92, ptr noundef %151)
  %153 = load i8, ptr getelementptr inbounds nuw (%struct.AmcheckOptions, ptr @opts, i32 0, i32 3), align 1, !range !6, !noundef !7
  %154 = trunc i8 %153 to i1
  br i1 %154, label %155, label %160

155:                                              ; preds = %135
  %156 = load ptr, ptr %7, align 8
  %157 = getelementptr inbounds nuw %struct.RelationInfo, ptr %156, i32 0, i32 7
  %158 = load ptr, ptr %157, align 8
  %159 = call i32 (ptr, ...) @pg_printf(ptr noundef @.str.93, ptr noundef %158)
  br label %160

160:                                              ; preds = %155, %135
  br label %161

161:                                              ; preds = %160
  %162 = load ptr, ptr %11, align 8
  call void @pg_free(ptr noundef %162)
  store ptr null, ptr %11, align 8
  br label %163

163:                                              ; preds = %161
  br label %164

164:                                              ; preds = %163
  call void @llvm.lifetime.end.p0(i64 8, ptr %11) #10
  br label %165

165:                                              ; preds = %164, %131
  br label %166

166:                                              ; preds = %165, %130
  br label %167

167:                                              ; preds = %166
  %168 = load ptr, ptr %7, align 8
  %169 = getelementptr inbounds nuw %struct.RelationInfo, ptr %168, i32 0, i32 7
  %170 = load ptr, ptr %169, align 8
  call void @pg_free(ptr noundef %170)
  %171 = load ptr, ptr %7, align 8
  %172 = getelementptr inbounds nuw %struct.RelationInfo, ptr %171, i32 0, i32 7
  store ptr null, ptr %172, align 8
  br label %173

173:                                              ; preds = %167
  br label %174

174:                                              ; preds = %173
  br label %175

175:                                              ; preds = %174
  %176 = load ptr, ptr %7, align 8
  %177 = getelementptr inbounds nuw %struct.RelationInfo, ptr %176, i32 0, i32 3
  %178 = load ptr, ptr %177, align 8
  call void @pg_free(ptr noundef %178)
  %179 = load ptr, ptr %7, align 8
  %180 = getelementptr inbounds nuw %struct.RelationInfo, ptr %179, i32 0, i32 3
  store ptr null, ptr %180, align 8
  br label %181

181:                                              ; preds = %175
  br label %182

182:                                              ; preds = %181
  br label %183

183:                                              ; preds = %182
  %184 = load ptr, ptr %7, align 8
  %185 = getelementptr inbounds nuw %struct.RelationInfo, ptr %184, i32 0, i32 4
  %186 = load ptr, ptr %185, align 8
  call void @pg_free(ptr noundef %186)
  %187 = load ptr, ptr %7, align 8
  %188 = getelementptr inbounds nuw %struct.RelationInfo, ptr %187, i32 0, i32 4
  store ptr null, ptr %188, align 8
  br label %189

189:                                              ; preds = %183
  br label %190

190:                                              ; preds = %189
  %191 = load ptr, ptr %4, align 8
  %192 = call zeroext i1 @should_processing_continue(ptr noundef %191)
  call void @llvm.lifetime.end.p0(i64 8, ptr %7) #10
  ret i1 %192
}