; Function Attrs: nounwind uwtable
define internal noundef zeroext i1 @verify_heap_slot_handler(ptr noundef %0, ptr noundef %1, ptr noundef captures(none) %2) #0 {
  %4 = tail call i32 @PQresultStatus(ptr noundef %0) #11
  %5 = icmp eq i32 %4, 2
  br i1 %5, label %6, label %50

6:                                                ; preds = %3
  %7 = tail call i32 @PQntuples(ptr noundef %0) #11
  %8 = icmp sgt i32 %7, 0
  br i1 %8, label %.lr.ph, label %.loopexit

.lr.ph:                                           ; preds = %6
  store i1 true, ptr @all_checks_pass, align 1
  %9 = getelementptr inbounds nuw i8, ptr %2, i64 16
  %10 = getelementptr inbounds nuw i8, ptr %2, i64 24
  br label %11

11:                                               ; preds = %.lr.ph, %47
  %.05661 = phi i32 [ 0, %.lr.ph ], [ %49, %47 ]
  %12 = tail call i32 @PQgetisnull(ptr noundef %0, i32 noundef %.05661, i32 noundef 3) #11
  %.not57 = icmp eq i32 %12, 0
  br i1 %.not57, label %13, label %15

13:                                               ; preds = %11
  %14 = tail call ptr @PQgetvalue(ptr noundef %0, i32 noundef %.05661, i32 noundef 3) #11
  br label %15

15:                                               ; preds = %11, %13
  %.0 = phi ptr [ %14, %13 ], [ @.str.86, %11 ]
  %16 = tail call i32 @PQgetisnull(ptr noundef %0, i32 noundef %.05661, i32 noundef 2) #11
  %.not58 = icmp eq i32 %16, 0
  br i1 %.not58, label %17, label %26

17:                                               ; preds = %15
  %18 = load ptr, ptr %2, align 8
  %19 = load ptr, ptr %18, align 8
  %20 = load ptr, ptr %9, align 8
  %21 = load ptr, ptr %10, align 8
  %22 = tail call ptr @PQgetvalue(ptr noundef %0, i32 noundef %.05661, i32 noundef 0) #11
  %23 = tail call ptr @PQgetvalue(ptr noundef %0, i32 noundef %.05661, i32 noundef 1) #11
  %24 = tail call ptr @PQgetvalue(ptr noundef %0, i32 noundef %.05661, i32 noundef 2) #11
  %25 = tail call i32 (ptr, ...) @pg_printf(ptr noundef nonnull @.str.87, ptr noundef %19, ptr noundef %20, ptr noundef %21, ptr noundef %22, ptr noundef %23, ptr noundef %24) #11
  br label %47

26:                                               ; preds = %15
  %27 = tail call i32 @PQgetisnull(ptr noundef %0, i32 noundef %.05661, i32 noundef 1) #11
  %.not59 = icmp eq i32 %27, 0
  br i1 %.not59, label %28, label %36

28:                                               ; preds = %26
  %29 = load ptr, ptr %2, align 8
  %30 = load ptr, ptr %29, align 8
  %31 = load ptr, ptr %9, align 8
  %32 = load ptr, ptr %10, align 8
  %33 = tail call ptr @PQgetvalue(ptr noundef %0, i32 noundef %.05661, i32 noundef 0) #11
  %34 = tail call ptr @PQgetvalue(ptr noundef %0, i32 noundef %.05661, i32 noundef 1) #11
  %35 = tail call i32 (ptr, ...) @pg_printf(ptr noundef nonnull @.str.88, ptr noundef %30, ptr noundef %31, ptr noundef %32, ptr noundef %33, ptr noundef %34) #11
  br label %47

36:                                               ; preds = %26
  %37 = tail call i32 @PQgetisnull(ptr noundef %0, i32 noundef %.05661, i32 noundef 0) #11
  %.not60 = icmp eq i32 %37, 0
  %38 = load ptr, ptr %2, align 8
  %39 = load ptr, ptr %38, align 8
  %40 = load ptr, ptr %9, align 8
  %41 = load ptr, ptr %10, align 8
  br i1 %.not60, label %42, label %45

42:                                               ; preds = %36
  %43 = tail call ptr @PQgetvalue(ptr noundef %0, i32 noundef %.05661, i32 noundef 0) #11
  %44 = tail call i32 (ptr, ...) @pg_printf(ptr noundef nonnull @.str.89, ptr noundef %39, ptr noundef %40, ptr noundef %41, ptr noundef %43) #11
  br label %47

45:                                               ; preds = %36
  %46 = tail call i32 (ptr, ...) @pg_printf(ptr noundef nonnull @.str.90, ptr noundef %39, ptr noundef %40, ptr noundef %41) #11
  br label %47

47:                                               ; preds = %28, %45, %42, %17
  %48 = tail call i32 (ptr, ...) @pg_printf(ptr noundef nonnull @.str.91, ptr noundef %.0) #11
  %49 = add nuw nsw i32 %.05661, 1
  %exitcond.not = icmp eq i32 %49, %7
  br i1 %exitcond.not, label %.loopexit, label %11, !llvm.loop !15

50:                                               ; preds = %3
  %51 = tail call i32 @PQresultStatus(ptr noundef %0) #11
  %.not = icmp eq i32 %51, 2
  br i1 %.not, label %.loopexit, label %52

52:                                               ; preds = %50
  %53 = tail call ptr @PQerrorMessage(ptr noundef %1) #11
  %54 = tail call fastcc ptr @indent_lines(ptr noundef %53)
  store i1 true, ptr @all_checks_pass, align 1
  %55 = load ptr, ptr %2, align 8
  %56 = load ptr, ptr %55, align 8
  %57 = getelementptr inbounds nuw i8, ptr %2, i64 16
  %58 = load ptr, ptr %57, align 8
  %59 = getelementptr inbounds nuw i8, ptr %2, i64 24
  %60 = load ptr, ptr %59, align 8
  %61 = tail call i32 (ptr, ...) @pg_printf(ptr noundef nonnull @.str.90, ptr noundef %56, ptr noundef %58, ptr noundef %60) #11
  %62 = tail call i32 (ptr, ...) @pg_printf(ptr noundef nonnull @.str.92, ptr noundef %54) #11
  %63 = load i8, ptr getelementptr inbounds nuw (i8, ptr @opts, i64 3), align 1, !range !6, !noundef !7
  %64 = trunc nuw i8 %63 to i1
  br i1 %64, label %65, label %69

65:                                               ; preds = %52
  %66 = getelementptr inbounds nuw i8, ptr %2, i64 40
  %67 = load ptr, ptr %66, align 8
  %68 = tail call i32 (ptr, ...) @pg_printf(ptr noundef nonnull @.str.93, ptr noundef %67) #11
  br label %69

69:                                               ; preds = %52, %65
  tail call void @pg_free(ptr noundef %54) #11
  br label %.loopexit

.loopexit:                                        ; preds = %47, %6, %69, %50
  %70 = getelementptr inbounds nuw i8, ptr %2, i64 40
  %71 = load ptr, ptr %70, align 8
  tail call void @pg_free(ptr noundef %71) #11
  store ptr null, ptr %70, align 8
  %72 = getelementptr inbounds nuw i8, ptr %2, i64 16
  %73 = load ptr, ptr %72, align 8
  tail call void @pg_free(ptr noundef %73) #11
  store ptr null, ptr %72, align 8
  %74 = getelementptr inbounds nuw i8, ptr %2, i64 24
  %75 = load ptr, ptr %74, align 8
  tail call void @pg_free(ptr noundef %75) #11
  store ptr null, ptr %74, align 8
  %76 = tail call i32 @PQresultStatus(ptr noundef %0) #11
  switch i32 %76, label %86 [
    i32 12, label %should_processing_continue.exit
    i32 11, label %should_processing_continue.exit
    i32 10, label %should_processing_continue.exit
    i32 7, label %77
    i32 5, label %should_processing_continue.exit
    i32 0, label %should_processing_continue.exit
    i32 3, label %should_processing_continue.exit
    i32 4, label %should_processing_continue.exit
    i32 8, label %should_processing_continue.exit
    i32 9, label %should_processing_continue.exit
  ]

77:                                               ; preds = %.loopexit
  %78 = tail call ptr @PQresultErrorField(ptr noundef %0, i32 noundef 86) #11
  %79 = icmp eq ptr %78, null
  br i1 %79, label %should_processing_continue.exit, label %80

80:                                               ; preds = %77
  %81 = tail call i32 @strcmp(ptr noundef nonnull dereferenceable(1) %78, ptr noundef nonnull dereferenceable(6) @.str.95) #15
  %82 = icmp eq i32 %81, 0
  br i1 %82, label %should_processing_continue.exit, label %83

83:                                               ; preds = %80
  %84 = tail call i32 @strcmp(ptr noundef nonnull dereferenceable(1) %78, ptr noundef nonnull dereferenceable(6) @.str.96) #15
  %85 = icmp eq i32 %84, 0
  br i1 %85, label %should_processing_continue.exit, label %86

86:                                               ; preds = %83, %.loopexit
  br label %should_processing_continue.exit

should_processing_continue.exit:                  ; preds = %.loopexit, %.loopexit, %.loopexit, %.loopexit, %.loopexit, %.loopexit, %.loopexit, %.loopexit, %.loopexit, %77, %80, %83, %86
  %.0.i = phi i1 [ true, %86 ], [ false, %77 ], [ false, %80 ], [ false, %83 ], [ false, %.loopexit ], [ false, %.loopexit ], [ false, %.loopexit ], [ false, %.loopexit ], [ false, %.loopexit ], [ false, %.loopexit ], [ false, %.loopexit ], [ false, %.loopexit ], [ false, %.loopexit ]
  ret i1 %.0.i
}